target datalayout = "e-m:e-p270:32:32-p271:32:32-p272:64:64-i64:64-i128:128-f80:128-n8:16:32:64-S128"
target triple = "x86_64-pc-linux-gnu"

%struct.ARKodeMemRec = type { ptr, double, ptr, i32, i32, double, double, ptr, i32, double, ptr, i32, i32, ptr, ptr, i32, ptr, ptr, i32, ptr, ptr, ptr, ptr, ptr, ptr, ptr, ptr, ptr, ptr, ptr, ptr, ptr, ptr, ptr, i32, ptr, ptr, i32, ptr, i32, ptr, ptr, ptr, ptr, ptr, ptr, ptr, ptr, ptr, ptr, ptr, ptr, ptr, ptr, ptr, ptr, ptr, ptr, ptr, ptr, ptr, ptr, ptr, ptr, ptr, ptr, i32, ptr, ptr, ptr, ptr, ptr, ptr, ptr, i32, ptr, ptr, ptr, i32, ptr, ptr, ptr, ptr, ptr, ptr, ptr, i32, i32, i32, i32, double, double, double, double, double, double, double, double, double, double, i32, ptr, i64, i32, i32, i32, i32, i64, i64, i32, i64, i64, i64, i64, i64, i64, i64, double, double, double, double, double, i32, double, double, i32, i32, i32, i32, i32, i32, i32, i32, ptr, i32, ptr, ptr, ptr, ptr, i32, i32, i32 }
%struct.ARKodeERKStepMemRec = type { ptr, ptr, i32, i32, i32, ptr, i64, ptr, ptr, i32, double, double, ptr, i32, ptr, ptr }
%struct._generic_N_Vector = type { ptr, ptr, ptr }
%struct._generic_N_Vector_Ops = type { ptr, ptr, ptr, ptr, ptr, ptr, ptr, ptr, ptr, ptr, ptr, ptr, ptr, ptr, ptr, ptr, ptr, ptr, ptr, ptr, ptr, ptr, ptr, ptr, ptr, ptr, ptr, ptr, ptr, ptr, ptr, ptr, ptr, ptr, ptr, ptr, ptr, ptr, ptr, ptr, ptr, ptr, ptr, ptr, ptr, ptr, ptr, ptr, ptr, ptr, ptr, ptr, ptr, ptr, ptr, ptr }

@.str = private unnamed_addr constant [123 x i8] c"generated/home/dtcxzyw/WorkSpace/Projects/compilers/llvm-opt-benchmark/bench/sundials/sundials/src/arkode/arkode_erkstep.c\00", align 1
@__func__.erkStep_Resize = private unnamed_addr constant [15 x i8] c"erkStep_Resize\00", align 1
@.str.10 = private unnamed_addr constant [24 x i8] c"Unable to resize vector\00", align 1
@.str.21 = private unnamed_addr constant [33 x i8] c"Time step module memory is NULL.\00", align 1

; Function Attrs: nounwind uwtable
define i32 @erkStep_AccessStepMem(ptr noundef %0, ptr noundef %1, ptr noundef %2) #0 {
  %4 = alloca i32, align 4
  %5 = alloca ptr, align 8
  %6 = alloca ptr, align 8
  %7 = alloca ptr, align 8
  store ptr %0, ptr %5, align 8, !tbaa !15
  store ptr %1, ptr %6, align 8, !tbaa !115
  store ptr %2, ptr %7, align 8, !tbaa !119
  %8 = load ptr, ptr %5, align 8, !tbaa !15
  %9 = getelementptr inbounds nuw %struct.ARKodeMemRec, ptr %8, i32 0, i32 19
  %10 = load ptr, ptr %9, align 8, !tbaa !41
  %11 = icmp eq ptr %10, null
  br i1 %11, label %12, label %15

12:                                               ; preds = %3
  %13 = load ptr, ptr %5, align 8, !tbaa !15
  %14 = load ptr, ptr %6, align 8, !tbaa !115
  call void (ptr, i32, i32, ptr, ptr, ptr, ...) @arkProcessError(ptr noundef %13, i32 noundef -21, i32 noundef 908, ptr noundef %14, ptr noundef @.str, ptr noundef @.str.21)
  store i32 -21, ptr %4, align 4
  br label %20

15:                                               ; preds = %3
  %16 = load ptr, ptr %5, align 8, !tbaa !15
  %17 = getelementptr inbounds nuw %struct.ARKodeMemRec, ptr %16, i32 0, i32 19
  %18 = load ptr, ptr %17, align 8, !tbaa !41
  %19 = load ptr, ptr %7, align 8, !tbaa !119
  store ptr %18, ptr %19, align 8, !tbaa !17
  store i32 0, ptr %4, align 4
  br label %20

20:                                               ; preds = %15, %12
  %21 = load i32, ptr %4, align 4
  ret i32 %21
}

; Function Attrs: nounwind uwtable
define i32 @erkStep_Resize(ptr noundef %0, ptr noundef %1, double noundef %2, double noundef %3, ptr noundef %4, ptr noundef %5) #0 {
  %7 = alloca i32, align 4
  %8 = alloca ptr, align 8
  %9 = alloca ptr, align 8
  %10 = alloca double, align 8
  %11 = alloca double, align 8
  %12 = alloca ptr, align 8
  %13 = alloca ptr, align 8
  %14 = alloca ptr, align 8
  %15 = alloca i64, align 8
  %16 = alloca i64, align 8
  %17 = alloca i64, align 8
  %18 = alloca i64, align 8
  %19 = alloca i32, align 4
  %20 = alloca i32, align 4
  %21 = alloca i32, align 4
  store ptr %0, ptr %8, align 8, !tbaa !15
  store ptr %1, ptr %9, align 8, !tbaa !9
  store double %2, ptr %10, align 8, !tbaa !7
  store double %3, ptr %11, align 8, !tbaa !7
  store ptr %4, ptr %12, align 8, !tbaa !3
  store ptr %5, ptr %13, align 8, !tbaa !3
  call void @llvm.lifetime.start.p0(i64 8, ptr %14) #8
  call void @llvm.lifetime.start.p0(i64 8, ptr %15) #8
  call void @llvm.lifetime.start.p0(i64 8, ptr %16) #8
  call void @llvm.lifetime.start.p0(i64 8, ptr %17) #8
  call void @llvm.lifetime.start.p0(i64 8, ptr %18) #8
  call void @llvm.lifetime.start.p0(i64 4, ptr %19) #8
  call void @llvm.lifetime.start.p0(i64 4, ptr %20) #8
  %22 = load ptr, ptr %8, align 8, !tbaa !15
  %23 = call i32 @erkStep_AccessStepMem(ptr noundef %22, ptr noundef @__func__.erkStep_Resize, ptr noundef %14)
  store i32 %23, ptr %20, align 4, !tbaa !13
  %24 = load i32, ptr %20, align 4, !tbaa !13
  %25 = icmp ne i32 %24, 0
  br i1 %25, label %26, label %28

26:                                               ; preds = %6
  %27 = load i32, ptr %20, align 4, !tbaa !13
  store i32 %27, ptr %7, align 4
  store i32 1, ptr %21, align 4
  br label %82

28:                                               ; preds = %6
  store i64 0, ptr %16, align 8, !tbaa !106
  store i64 0, ptr %15, align 8, !tbaa !106
  %29 = load ptr, ptr %9, align 8, !tbaa !9
  %30 = getelementptr inbounds nuw %struct._generic_N_Vector, ptr %29, i32 0, i32 1
  %31 = load ptr, ptr %30, align 8, !tbaa !55
  %32 = getelementptr inbounds nuw %struct._generic_N_Vector_Ops, ptr %31, i32 0, i32 4
  %33 = load ptr, ptr %32, align 8, !tbaa !107
  %34 = icmp ne ptr %33, null
  br i1 %34, label %35, label %37

35:                                               ; preds = %28
  %36 = load ptr, ptr %9, align 8, !tbaa !9
  call void @N_VSpace(ptr noundef %36, ptr noundef %15, ptr noundef %16)
  br label %37

37:                                               ; preds = %35, %28
  %38 = load i64, ptr %15, align 8, !tbaa !106
  %39 = load ptr, ptr %8, align 8, !tbaa !15
  %40 = getelementptr inbounds nuw %struct.ARKodeMemRec, ptr %39, i32 0, i32 113
  %41 = load i64, ptr %40, align 8, !tbaa !108
  %42 = sub nsw i64 %38, %41
  store i64 %42, ptr %17, align 8, !tbaa !106
  %43 = load i64, ptr %16, align 8, !tbaa !106
  %44 = load ptr, ptr %8, align 8, !tbaa !15
  %45 = getelementptr inbounds nuw %struct.ARKodeMemRec, ptr %44, i32 0, i32 114
  %46 = load i64, ptr %45, align 8, !tbaa !109
  %47 = sub nsw i64 %43, %46
  store i64 %47, ptr %18, align 8, !tbaa !106
  %48 = load i64, ptr %15, align 8, !tbaa !106
  %49 = load ptr, ptr %8, align 8, !tbaa !15
  %50 = getelementptr inbounds nuw %struct.ARKodeMemRec, ptr %49, i32 0, i32 113
  store i64 %48, ptr %50, align 8, !tbaa !108
  %51 = load i64, ptr %16, align 8, !tbaa !106
  %52 = load ptr, ptr %8, align 8, !tbaa !15
  %53 = getelementptr inbounds nuw %struct.ARKodeMemRec, ptr %52, i32 0, i32 114
  store i64 %51, ptr %53, align 8, !tbaa !109
  store i32 0, ptr %19, align 4, !tbaa !13
  br label %54

54:                                               ; preds = %78, %37
  %55 = load i32, ptr %19, align 4, !tbaa !13
  %56 = load ptr, ptr %14, align 8, !tbaa !17
  %57 = getelementptr inbounds nuw %struct.ARKodeERKStepMemRec, ptr %56, i32 0, i32 4
  %58 = load i32, ptr %57, align 8, !tbaa !83
  %59 = icmp slt i32 %55, %58
  br i1 %59, label %60, label %81

60:                                               ; preds = %54
  %61 = load ptr, ptr %8, align 8, !tbaa !15
  %62 = load ptr, ptr %12, align 8, !tbaa !3
  %63 = load ptr, ptr %13, align 8, !tbaa !3
  %64 = load i64, ptr %17, align 8, !tbaa !106
  %65 = load i64, ptr %18, align 8, !tbaa !106
  %66 = load ptr, ptr %9, align 8, !tbaa !9
  %67 = load ptr, ptr %14, align 8, !tbaa !17
  %68 = getelementptr inbounds nuw %struct.ARKodeERKStepMemRec, ptr %67, i32 0, i32 1
  %69 = load ptr, ptr %68, align 8, !tbaa !82
  %70 = load i32, ptr %19, align 4, !tbaa !13
  %71 = sext i32 %70 to i64
  %72 = getelementptr inbounds ptr, ptr %69, i64 %71
  %73 = call i32 @arkResizeVec(ptr noundef %61, ptr noundef %62, ptr noundef %63, i64 noundef %64, i64 noundef %65, ptr noundef %66, ptr noundef %72)
  %74 = icmp ne i32 %73, 0
  br i1 %74, label %77, label %75

75:                                               ; preds = %60
  %76 = load ptr, ptr %8, align 8, !tbaa !15
  call void (ptr, i32, i32, ptr, ptr, ptr, ...) @arkProcessError(ptr noundef %76, i32 noundef -20, i32 noundef 257, ptr noundef @__func__.erkStep_Resize, ptr noundef @.str, ptr noundef @.str.10)
  store i32 -20, ptr %7, align 4
  store i32 1, ptr %21, align 4
  br label %82

77:                                               ; preds = %60
  br label %78

78:                                               ; preds = %77
  %79 = load i32, ptr %19, align 4, !tbaa !13
  %80 = add nsw i32 %79, 1
  store i32 %80, ptr %19, align 4, !tbaa !13
  br label %54

81:                                               ; preds = %54
  store i32 0, ptr %7, align 4
  store i32 1, ptr %21, align 4
  br label %82

82:                                               ; preds = %81, %75, %26
  call void @llvm.lifetime.end.p0(i64 4, ptr %20) #8
  call void @llvm.lifetime.end.p0(i64 4, ptr %19) #8
  call void @llvm.lifetime.end.p0(i64 8, ptr %18) #8
  call void @llvm.lifetime.end.p0(i64 8, ptr %17) #8
  call void @llvm.lifetime.end.p0(i64 8, ptr %16) #8
  call void @llvm.lifetime.end.p0(i64 8, ptr %15) #8
  call void @llvm.lifetime.end.p0(i64 8, ptr %14) #8
  %83 = load i32, ptr %7, align 4
  ret i32 %83
}