; Function Attrs: nounwind uwtable
define range(i32 -21, 1) i32 @erkStep_Resize(ptr noundef %0, ptr noundef %1, double %2, double %3, ptr noundef %4, ptr noundef %5) #0 {
  %7 = alloca i64, align 8
  %8 = alloca i64, align 8
  call void @llvm.lifetime.start.p0(i64 8, ptr nonnull %7) #12
  call void @llvm.lifetime.start.p0(i64 8, ptr nonnull %8) #12
  %9 = getelementptr inbounds nuw i8, ptr %0, i64 136
  %10 = load ptr, ptr %9, align 8, !tbaa !44
  %11 = icmp eq ptr %10, null
  br i1 %11, label %erkStep_AccessStepMem.exit, label %12

erkStep_AccessStepMem.exit:                       ; preds = %6
  tail call void (ptr, i32, i32, ptr, ptr, ptr, ...) @arkProcessError(ptr noundef nonnull %0, i32 noundef -21, i32 noundef 908, ptr noundef nonnull @__func__.erkStep_Resize, ptr noundef nonnull @.str, ptr noundef nonnull @.str.21) #12
  br label %.loopexit

12:                                               ; preds = %6
  store i64 0, ptr %8, align 8, !tbaa !101
  store i64 0, ptr %7, align 8, !tbaa !101
  %13 = getelementptr inbounds nuw i8, ptr %1, i64 8
  %14 = load ptr, ptr %13, align 8, !tbaa !3
  %15 = getelementptr inbounds nuw i8, ptr %14, i64 32
  %16 = load ptr, ptr %15, align 8, !tbaa !102
  %.not21 = icmp eq ptr %16, null
  br i1 %.not21, label %18, label %17

17:                                               ; preds = %12
  call void @N_VSpace(ptr noundef nonnull %1, ptr noundef nonnull %7, ptr noundef nonnull %8) #12
  %.pre = load i64, ptr %7, align 8, !tbaa !101
  %.pre28 = load i64, ptr %8, align 8, !tbaa !101
  br label %18

18:                                               ; preds = %17, %12
  %19 = phi i64 [ %.pre28, %17 ], [ 0, %12 ]
  %20 = phi i64 [ %.pre, %17 ], [ 0, %12 ]
  %21 = getelementptr inbounds nuw i8, ptr %0, i64 856
  %22 = load i64, ptr %21, align 8, !tbaa !103
  %23 = sub nsw i64 %20, %22
  %24 = getelementptr inbounds nuw i8, ptr %0, i64 864
  %25 = load i64, ptr %24, align 8, !tbaa !104
  %26 = sub nsw i64 %19, %25
  store i64 %20, ptr %21, align 8, !tbaa !103
  store i64 %19, ptr %24, align 8, !tbaa !104
  %27 = getelementptr inbounds nuw i8, ptr %10, i64 24
  %28 = load i32, ptr %27, align 8, !tbaa !72
  %29 = icmp sgt i32 %28, 0
  br i1 %29, label %.lr.ph, label %.loopexit

.lr.ph:                                           ; preds = %18
  %30 = getelementptr inbounds nuw i8, ptr %10, i64 8
  br label %35

31:                                               ; preds = %35
  %indvars.iv.next = add nuw nsw i64 %indvars.iv, 1
  %32 = load i32, ptr %27, align 8, !tbaa !72
  %33 = sext i32 %32 to i64
  %34 = icmp slt i64 %indvars.iv.next, %33
  br i1 %34, label %35, label %.loopexit

35:                                               ; preds = %.lr.ph, %31
  %indvars.iv = phi i64 [ 0, %.lr.ph ], [ %indvars.iv.next, %31 ]
  %36 = load ptr, ptr %30, align 8, !tbaa !71
  %37 = getelementptr inbounds nuw ptr, ptr %36, i64 %indvars.iv
  %38 = call i32 @arkResizeVec(ptr noundef %0, ptr noundef %4, ptr noundef %5, i64 noundef %23, i64 noundef %26, ptr noundef %1, ptr noundef %37) #12
  %.not22 = icmp eq i32 %38, 0
  br i1 %.not22, label %39, label %31

39:                                               ; preds = %35
  call void (ptr, i32, i32, ptr, ptr, ptr, ...) @arkProcessError(ptr noundef %0, i32 noundef -20, i32 noundef 257, ptr noundef nonnull @__func__.erkStep_Resize, ptr noundef nonnull @.str, ptr noundef nonnull @.str.10) #12
  br label %.loopexit

.loopexit:                                        ; preds = %31, %18, %erkStep_AccessStepMem.exit, %39
  %.0 = phi i32 [ -20, %39 ], [ -21, %erkStep_AccessStepMem.exit ], [ 0, %18 ], [ 0, %31 ]
  call void @llvm.lifetime.end.p0(i64 8, ptr nonnull %8) #12
  call void @llvm.lifetime.end.p0(i64 8, ptr nonnull %7) #12
  ret i32 %.0
}